; Function Attrs: mustprogress nounwind uwtable
define hidden void @_ZN27JvmtiClassFileReconstituter32write_method_parameter_attributeEPK11ConstMethod(ptr nocapture noundef nonnull align 8 dereferenceable(88) %0, ptr noundef nonnull %1) local_unnamed_addr #0 align 2 {
  %3 = tail call noundef ptr @_ZNK11ConstMethod23method_parameters_startEv(ptr noundef nonnull align 8 dereferenceable(52) %1) #12
  %4 = tail call noundef i32 @_ZNK11ConstMethod24method_parameters_lengthEv(ptr noundef nonnull align 8 dereferenceable(52) %1) #12
  %5 = shl nsw i32 %4, 2
  %6 = or disjoint i32 %5, 1
  tail call void @_ZN27JvmtiClassFileReconstituter26write_attribute_name_indexEPKc(ptr noundef nonnull align 8 dereferenceable(88) %0, ptr noundef nonnull @.str.13)
  %7 = getelementptr inbounds i8, ptr %0, i64 72
  %8 = load ptr, ptr %7, align 8
  %9 = getelementptr inbounds i8, ptr %0, i64 64
  %10 = load ptr, ptr %9, align 8
  %11 = ptrtoint ptr %8 to i64
  %12 = ptrtoint ptr %10 to i64
  %13 = sub i64 %11, %12
  %14 = add i64 %13, 4
  %15 = getelementptr inbounds i8, ptr %0, i64 56
  %16 = load i64, ptr %15, align 8
  %.not.i.i = icmp ult i64 %14, %16
  br i1 %.not.i.i, label %_ZN27JvmtiClassFileReconstituter17writeable_addressEm.exit.i, label %17

17:                                               ; preds = %2
  %18 = shl i64 %16, 1
  %19 = add i64 %18, 5
  %20 = and i64 %19, -1024
  %21 = tail call noundef ptr @_Z25resource_reallocate_bytesPcmmN17AllocFailStrategy13AllocFailEnumE(ptr noundef %10, i64 noundef %16, i64 noundef %20, i32 noundef 0) #12
  store ptr %21, ptr %9, align 8
  store i64 %20, ptr %15, align 8
  %22 = getelementptr inbounds i8, ptr %21, i64 %13
  %.pre.i = ptrtoint ptr %22 to i64
  br label %_ZN27JvmtiClassFileReconstituter17writeable_addressEm.exit.i

_ZN27JvmtiClassFileReconstituter17writeable_addressEm.exit.i: ; preds = %17, %2
  %.pre-phi.i = phi i64 [ %11, %2 ], [ %.pre.i, %17 ]
  %23 = phi ptr [ %8, %2 ], [ %22, %17 ]
  %24 = getelementptr inbounds i8, ptr %23, i64 4
  store ptr %24, ptr %7, align 8
  %25 = tail call noundef i32 @llvm.bswap.i32(i32 %6)
  %26 = and i64 %.pre-phi.i, 3
  %27 = icmp eq i64 %26, 0
  br i1 %27, label %28, label %29

28:                                               ; preds = %_ZN27JvmtiClassFileReconstituter17writeable_addressEm.exit.i
  store i32 %25, ptr %23, align 4
  br label %_ZN27JvmtiClassFileReconstituter8write_u4Ej.exit

29:                                               ; preds = %_ZN27JvmtiClassFileReconstituter17writeable_addressEm.exit.i
  store i32 %25, ptr %23, align 1
  br label %_ZN27JvmtiClassFileReconstituter8write_u4Ej.exit

_ZN27JvmtiClassFileReconstituter8write_u4Ej.exit: ; preds = %28, %29
  %30 = trunc i32 %4 to i8
  %31 = load ptr, ptr %7, align 8
  %32 = load ptr, ptr %9, align 8
  %33 = ptrtoint ptr %31 to i64
  %34 = ptrtoint ptr %32 to i64
  %35 = sub i64 %33, %34
  %36 = add i64 %35, 1
  %37 = load i64, ptr %15, align 8
  %.not.i.i12 = icmp ult i64 %36, %37
  br i1 %.not.i.i12, label %_ZN27JvmtiClassFileReconstituter8write_u1Eh.exit, label %38

38:                                               ; preds = %_ZN27JvmtiClassFileReconstituter8write_u4Ej.exit
  %39 = shl i64 %37, 1
  %40 = add i64 %39, 2
  %41 = and i64 %40, -1024
  %42 = tail call noundef ptr @_Z25resource_reallocate_bytesPcmmN17AllocFailStrategy13AllocFailEnumE(ptr noundef %32, i64 noundef %37, i64 noundef %41, i32 noundef 0) #12
  store ptr %42, ptr %9, align 8
  store i64 %41, ptr %15, align 8
  %43 = getelementptr inbounds i8, ptr %42, i64 %35
  br label %_ZN27JvmtiClassFileReconstituter8write_u1Eh.exit

_ZN27JvmtiClassFileReconstituter8write_u1Eh.exit: ; preds = %_ZN27JvmtiClassFileReconstituter8write_u4Ej.exit, %38
  %44 = phi ptr [ %43, %38 ], [ %31, %_ZN27JvmtiClassFileReconstituter8write_u4Ej.exit ]
  %45 = getelementptr inbounds i8, ptr %44, i64 1
  store ptr %45, ptr %7, align 8
  store i8 %30, ptr %44, align 1
  %46 = icmp sgt i32 %4, 0
  br i1 %46, label %.lr.ph.preheader, label %._crit_edge

.lr.ph.preheader:                                 ; preds = %_ZN27JvmtiClassFileReconstituter8write_u1Eh.exit
  %wide.trip.count = zext nneg i32 %4 to i64
  br label %.lr.ph

.lr.ph:                                           ; preds = %.lr.ph.preheader, %_ZN27JvmtiClassFileReconstituter8write_u2Et.exit22
  %indvars.iv = phi i64 [ 0, %.lr.ph.preheader ], [ %indvars.iv.next, %_ZN27JvmtiClassFileReconstituter8write_u2Et.exit22 ]
  %47 = getelementptr inbounds %class.MethodParametersElement, ptr %3, i64 %indvars.iv
  %48 = load i16, ptr %47, align 2
  %49 = load ptr, ptr %7, align 8
  %50 = load ptr, ptr %9, align 8
  %51 = ptrtoint ptr %49 to i64
  %52 = ptrtoint ptr %50 to i64
  %53 = sub i64 %51, %52
  %54 = add i64 %53, 2
  %55 = load i64, ptr %15, align 8
  %.not.i.i14 = icmp ult i64 %54, %55
  br i1 %.not.i.i14, label %_ZN27JvmtiClassFileReconstituter17writeable_addressEm.exit.i16, label %56

56:                                               ; preds = %.lr.ph
  %57 = shl i64 %55, 1
  %58 = add i64 %57, 3
  %59 = and i64 %58, -1024
  %60 = tail call noundef ptr @_Z25resource_reallocate_bytesPcmmN17AllocFailStrategy13AllocFailEnumE(ptr noundef %50, i64 noundef %55, i64 noundef %59, i32 noundef 0) #12
  store ptr %60, ptr %9, align 8
  store i64 %59, ptr %15, align 8
  %61 = getelementptr inbounds i8, ptr %60, i64 %53
  %.pre.i15 = ptrtoint ptr %61 to i64
  br label %_ZN27JvmtiClassFileReconstituter17writeable_addressEm.exit.i16

_ZN27JvmtiClassFileReconstituter17writeable_addressEm.exit.i16: ; preds = %56, %.lr.ph
  %.pre-phi.i17 = phi i64 [ %51, %.lr.ph ], [ %.pre.i15, %56 ]
  %62 = phi ptr [ %49, %.lr.ph ], [ %61, %56 ]
  %63 = getelementptr inbounds i8, ptr %62, i64 2
  store ptr %63, ptr %7, align 8
  %64 = tail call noundef i16 @llvm.bswap.i16(i16 %48)
  %65 = and i64 %.pre-phi.i17, 1
  %66 = icmp eq i64 %65, 0
  br i1 %66, label %67, label %68

67:                                               ; preds = %_ZN27JvmtiClassFileReconstituter17writeable_addressEm.exit.i16
  store i16 %64, ptr %62, align 2
  br label %_ZN27JvmtiClassFileReconstituter8write_u2Et.exit

68:                                               ; preds = %_ZN27JvmtiClassFileReconstituter17writeable_addressEm.exit.i16
  store i16 %64, ptr %62, align 1
  br label %_ZN27JvmtiClassFileReconstituter8write_u2Et.exit

_ZN27JvmtiClassFileReconstituter8write_u2Et.exit: ; preds = %67, %68
  %69 = getelementptr inbounds i8, ptr %47, i64 2
  %70 = load i16, ptr %69, align 2
  %71 = load ptr, ptr %7, align 8
  %72 = load ptr, ptr %9, align 8
  %73 = ptrtoint ptr %71 to i64
  %74 = ptrtoint ptr %72 to i64
  %75 = sub i64 %73, %74
  %76 = add i64 %75, 2
  %77 = load i64, ptr %15, align 8
  %.not.i.i18 = icmp ult i64 %76, %77
  br i1 %.not.i.i18, label %_ZN27JvmtiClassFileReconstituter17writeable_addressEm.exit.i20, label %78

78:                                               ; preds = %_ZN27JvmtiClassFileReconstituter8write_u2Et.exit
  %79 = shl i64 %77, 1
  %80 = add i64 %79, 3
  %81 = and i64 %80, -1024
  %82 = tail call noundef ptr @_Z25resource_reallocate_bytesPcmmN17AllocFailStrategy13AllocFailEnumE(ptr noundef %72, i64 noundef %77, i64 noundef %81, i32 noundef 0) #12
  store ptr %82, ptr %9, align 8
  store i64 %81, ptr %15, align 8
  %83 = getelementptr inbounds i8, ptr %82, i64 %75
  %.pre.i19 = ptrtoint ptr %83 to i64
  br label %_ZN27JvmtiClassFileReconstituter17writeable_addressEm.exit.i20

_ZN27JvmtiClassFileReconstituter17writeable_addressEm.exit.i20: ; preds = %78, %_ZN27JvmtiClassFileReconstituter8write_u2Et.exit
  %.pre-phi.i21 = phi i64 [ %73, %_ZN27JvmtiClassFileReconstituter8write_u2Et.exit ], [ %.pre.i19, %78 ]
  %84 = phi ptr [ %71, %_ZN27JvmtiClassFileReconstituter8write_u2Et.exit ], [ %83, %78 ]
  %85 = getelementptr inbounds i8, ptr %84, i64 2
  store ptr %85, ptr %7, align 8
  %86 = tail call noundef i16 @llvm.bswap.i16(i16 %70)
  %87 = and i64 %.pre-phi.i21, 1
  %88 = icmp eq i64 %87, 0
  br i1 %88, label %89, label %90

89:                                               ; preds = %_ZN27JvmtiClassFileReconstituter17writeable_addressEm.exit.i20
  store i16 %86, ptr %84, align 2
  br label %_ZN27JvmtiClassFileReconstituter8write_u2Et.exit22

90:                                               ; preds = %_ZN27JvmtiClassFileReconstituter17writeable_addressEm.exit.i20
  store i16 %86, ptr %84, align 1
  br label %_ZN27JvmtiClassFileReconstituter8write_u2Et.exit22

_ZN27JvmtiClassFileReconstituter8write_u2Et.exit22: ; preds = %89, %90
  %indvars.iv.next = add nuw nsw i64 %indvars.iv, 1
  %exitcond.not = icmp eq i64 %indvars.iv.next, %wide.trip.count
  br i1 %exitcond.not, label %._crit_edge, label %.lr.ph, !llvm.loop !19

._crit_edge:                                      ; preds = %_ZN27JvmtiClassFileReconstituter8write_u2Et.exit22, %_ZN27JvmtiClassFileReconstituter8write_u1Eh.exit
  ret void
}